; ModuleID = '39/1651.c'
source_filename = "39/1651.c"
target datalayout = "e-m:e-p270:32:32-p271:32:32-p272:64:64-i64:64-f80:128-n8:16:32:64-S128"
target triple = "x86_64-pc-linux-gnu"

@.str = private unnamed_addr constant [3 x i8] c"%d\00", align 1
@.str.1 = private unnamed_addr constant [19 x i8] c"%s %d %d %c %c %d\0A\00", align 1
@.str.2 = private unnamed_addr constant [10 x i8] c"%s\0A%d\0A%d\0A\00", align 1

; Function Attrs: noinline nounwind uwtable
define dso_local i32 @main() #0 {
  %1 = alloca i32, align 4
  %2 = alloca i32, align 4
  %3 = alloca [100 x i32], align 16
  %4 = alloca [100 x i32], align 16
  %5 = alloca [100 x i32], align 16
  %6 = alloca i32, align 4
  %7 = alloca [100 x [21 x i8]], align 16
  %8 = alloca i8, align 1
  %9 = alloca i8, align 1
  %10 = alloca i32, align 4
  %11 = alloca i32, align 4
  %12 = alloca i32, align 4
  %13 = alloca i32, align 4
  store i32 0, i32* %1, align 4
  %14 = call i32 (i8*, ...) @__isoc99_scanf(i8* getelementptr inbounds ([3 x i8], [3 x i8]* @.str, i64 0, i64 0), i32* %2)
  store i32 0, i32* %10, align 4
  store i32 0, i32* %11, align 4
  br label %15

15:                                               ; preds = %117, %0
  %16 = load i32, i32* %11, align 4
  %17 = load i32, i32* %2, align 4
  %18 = icmp slt i32 %16, %17
  br i1 %18, label %19, label %120

19:                                               ; preds = %15
  %20 = load i32, i32* %11, align 4
  %21 = sext i32 %20 to i64
  %22 = getelementptr inbounds [100 x i32], [100 x i32]* %5, i64 0, i64 %21
  store i32 0, i32* %22, align 4
  %23 = load i32, i32* %11, align 4
  %24 = sext i32 %23 to i64
  %25 = getelementptr inbounds [100 x [21 x i8]], [100 x [21 x i8]]* %7, i64 0, i64 %24
  %26 = getelementptr inbounds [21 x i8], [21 x i8]* %25, i64 0, i64 0
  %27 = load i32, i32* %11, align 4
  %28 = sext i32 %27 to i64
  %29 = getelementptr inbounds [100 x i32], [100 x i32]* %3, i64 0, i64 %28
  %30 = load i32, i32* %11, align 4
  %31 = sext i32 %30 to i64
  %32 = getelementptr inbounds [100 x i32], [100 x i32]* %4, i64 0, i64 %31
  %33 = call i32 (i8*, ...) @__isoc99_scanf(i8* getelementptr inbounds ([19 x i8], [19 x i8]* @.str.1, i64 0, i64 0), i8* %26, i32* %29, i32* %32, i8* %8, i8* %9, i32* %6)
  %34 = load i32, i32* %11, align 4
  %35 = sext i32 %34 to i64
  %36 = getelementptr inbounds [100 x i32], [100 x i32]* %3, i64 0, i64 %35
  %37 = load i32, i32* %36, align 4
  %38 = icmp sgt i32 %37, 80
  br i1 %38, label %39, label %48

39:                                               ; preds = %19
  %40 = load i32, i32* %6, align 4
  %41 = icmp sge i32 %40, 1
  br i1 %41, label %42, label %48

42:                                               ; preds = %39
  %43 = load i32, i32* %11, align 4
  %44 = sext i32 %43 to i64
  %45 = getelementptr inbounds [100 x i32], [100 x i32]* %5, i64 0, i64 %44
  %46 = load i32, i32* %45, align 4
  %47 = add nsw i32 %46, 8000
  store i32 %47, i32* %45, align 4
  br label %48

48:                                               ; preds = %42, %39, %19
  %49 = load i32, i32* %11, align 4
  %50 = sext i32 %49 to i64
  %51 = getelementptr inbounds [100 x i32], [100 x i32]* %3, i64 0, i64 %50
  %52 = load i32, i32* %51, align 4
  %53 = icmp sgt i32 %52, 85
  br i1 %53, label %54, label %66

54:                                               ; preds = %48
  %55 = load i32, i32* %11, align 4
  %56 = sext i32 %55 to i64
  %57 = getelementptr inbounds [100 x i32], [100 x i32]* %4, i64 0, i64 %56
  %58 = load i32, i32* %57, align 4
  %59 = icmp sgt i32 %58, 80
  br i1 %59, label %60, label %66

60:                                               ; preds = %54
  %61 = load i32, i32* %11, align 4
  %62 = sext i32 %61 to i64
  %63 = getelementptr inbounds [100 x i32], [100 x i32]* %5, i64 0, i64 %62
  %64 = load i32, i32* %63, align 4
  %65 = add nsw i32 %64, 4000
  store i32 %65, i32* %63, align 4
  br label %66

66:                                               ; preds = %60, %54, %48
  %67 = load i32, i32* %11, align 4
  %68 = sext i32 %67 to i64
  %69 = getelementptr inbounds [100 x i32], [100 x i32]* %3, i64 0, i64 %68
  %70 = load i32, i32* %69, align 4
  %71 = icmp sgt i32 %70, 90
  br i1 %71, label %72, label %78

72:                                               ; preds = %66
  %73 = load i32, i32* %11, align 4
  %74 = sext i32 %73 to i64
  %75 = getelementptr inbounds [100 x i32], [100 x i32]* %5, i64 0, i64 %74
  %76 = load i32, i32* %75, align 4
  %77 = add nsw i32 %76, 2000
  store i32 %77, i32* %75, align 4
  br label %78

78:                                               ; preds = %72, %66
  %79 = load i32, i32* %11, align 4
  %80 = sext i32 %79 to i64
  %81 = getelementptr inbounds [100 x i32], [100 x i32]* %3, i64 0, i64 %80
  %82 = load i32, i32* %81, align 4
  %83 = icmp sgt i32 %82, 85
  br i1 %83, label %84, label %94

84:                                               ; preds = %78
  %85 = load i8, i8* %9, align 1
  %86 = sext i8 %85 to i32
  %87 = icmp eq i32 %86, 89
  br i1 %87, label %88, label %94

88:                                               ; preds = %84
  %89 = load i32, i32* %11, align 4
  %90 = sext i32 %89 to i64
  %91 = getelementptr inbounds [100 x i32], [100 x i32]* %5, i64 0, i64 %90
  %92 = load i32, i32* %91, align 4
  %93 = add nsw i32 %92, 1000
  store i32 %93, i32* %91, align 4
  br label %94

94:                                               ; preds = %88, %84, %78
  %95 = load i32, i32* %11, align 4
  %96 = sext i32 %95 to i64
  %97 = getelementptr inbounds [100 x i32], [100 x i32]* %4, i64 0, i64 %96
  %98 = load i32, i32* %97, align 4
  %99 = icmp sgt i32 %98, 80
  br i1 %99, label %100, label %110

100:                                              ; preds = %94
  %101 = load i8, i8* %8, align 1
  %102 = sext i8 %101 to i32
  %103 = icmp eq i32 %102, 89
  br i1 %103, label %104, label %110

104:                                              ; preds = %100
  %105 = load i32, i32* %11, align 4
  %106 = sext i32 %105 to i64
  %107 = getelementptr inbounds [100 x i32], [100 x i32]* %5, i64 0, i64 %106
  %108 = load i32, i32* %107, align 4
  %109 = add nsw i32 %108, 850
  store i32 %109, i32* %107, align 4
  br label %110

110:                                              ; preds = %104, %100, %94
  %111 = load i32, i32* %11, align 4
  %112 = sext i32 %111 to i64
  %113 = getelementptr inbounds [100 x i32], [100 x i32]* %5, i64 0, i64 %112
  %114 = load i32, i32* %113, align 4
  %115 = load i32, i32* %10, align 4
  %116 = add nsw i32 %115, %114
  store i32 %116, i32* %10, align 4
  br label %117

117:                                              ; preds = %110
  %118 = load i32, i32* %11, align 4
  %119 = add nsw i32 %118, 1
  store i32 %119, i32* %11, align 4
  br label %15

120:                                              ; preds = %15
  store i32 0, i32* %12, align 4
  store i32 0, i32* %13, align 4
  br label %121

121:                                              ; preds = %138, %120
  %122 = load i32, i32* %13, align 4
  %123 = load i32, i32* %2, align 4
  %124 = icmp slt i32 %122, %123
  br i1 %124, label %125, label %141

125:                                              ; preds = %121
  %126 = load i32, i32* %13, align 4
  %127 = sext i32 %126 to i64
  %128 = getelementptr inbounds [100 x i32], [100 x i32]* %5, i64 0, i64 %127
  %129 = load i32, i32* %128, align 4
  %130 = load i32, i32* %12, align 4
  %131 = sext i32 %130 to i64
  %132 = getelementptr inbounds [100 x i32], [100 x i32]* %5, i64 0, i64 %131
  %133 = load i32, i32* %132, align 4
  %134 = icmp sgt i32 %129, %133
  br i1 %134, label %135, label %137

135:                                              ; preds = %125
  %136 = load i32, i32* %13, align 4
  store i32 %136, i32* %12, align 4
  br label %137

137:                                              ; preds = %135, %125
  br label %138

138:                                              ; preds = %137
  %139 = load i32, i32* %13, align 4
  %140 = add nsw i32 %139, 1
  store i32 %140, i32* %13, align 4
  br label %121

141:                                              ; preds = %121
  %142 = load i32, i32* %12, align 4
  %143 = sext i32 %142 to i64
  %144 = getelementptr inbounds [100 x [21 x i8]], [100 x [21 x i8]]* %7, i64 0, i64 %143
  %145 = getelementptr inbounds [21 x i8], [21 x i8]* %144, i64 0, i64 0
  %146 = load i32, i32* %12, align 4
  %147 = sext i32 %146 to i64
  %148 = getelementptr inbounds [100 x i32], [100 x i32]* %5, i64 0, i64 %147
  %149 = load i32, i32* %148, align 4
  %150 = load i32, i32* %10, align 4
  %151 = call i32 (i8*, ...) @printf(i8* getelementptr inbounds ([10 x i8], [10 x i8]* @.str.2, i64 0, i64 0), i8* %145, i32 %149, i32 %150)
  ret i32 0
}

declare dso_local i32 @__isoc99_scanf(i8*, ...) #1

declare dso_local i32 @printf(i8*, ...) #1


!llvm.module.flags = !{!0}
!llvm.ident = !{!1}

!0 = !{i32 1, !"wchar_size", i32 4}
!1 = !{!"clang version 10.0.0-4ubuntu1 "}
